; ModuleID = '17/801.c'
source_filename = "17/801.c"
target datalayout = "e-m:e-p270:32:32-p271:32:32-p272:64:64-i64:64-f80:128-n8:16:32:64-S128"
target triple = "x86_64-pc-linux-gnu"

@.str = private unnamed_addr constant [4 x i8] c"%d\0A\00", align 1
@.str.1 = private unnamed_addr constant [4 x i8] c"%s\0A\00", align 1
@.str.2 = private unnamed_addr constant [2 x i8] c"$\00", align 1
@.str.3 = private unnamed_addr constant [2 x i8] c"?\00", align 1
@.str.4 = private unnamed_addr constant [2 x i8] c" \00", align 1
@.str.5 = private unnamed_addr constant [2 x i8] c"\0A\00", align 1

; Function Attrs: noinline nounwind uwtable
define dso_local i32 @main() #0 {
  %1 = alloca i32, align 4
  %2 = alloca [100 x [110 x i8]], align 16
  %3 = alloca i32, align 4
  %4 = alloca i32, align 4
  %5 = alloca i32, align 4
  %6 = alloca i32, align 4
  store i32 0, i32* %1, align 4
  %7 = call i32 (i8*, ...) @__isoc99_scanf(i8* getelementptr inbounds ([4 x i8], [4 x i8]* @.str, i64 0, i64 0), i32* %6)
  store i32 0, i32* %3, align 4
  br label %8

8:                                                ; preds = %18, %0
  %9 = load i32, i32* %3, align 4
  %10 = load i32, i32* %6, align 4
  %11 = icmp slt i32 %9, %10
  br i1 %11, label %12, label %21

12:                                               ; preds = %8
  %13 = load i32, i32* %3, align 4
  %14 = sext i32 %13 to i64
  %15 = getelementptr inbounds [100 x [110 x i8]], [100 x [110 x i8]]* %2, i64 0, i64 %14
  %16 = getelementptr inbounds [110 x i8], [110 x i8]* %15, i64 0, i64 0
  %17 = call i32 (i8*, ...) bitcast (i32 (...)* @gets to i32 (i8*, ...)*)(i8* %16)
  br label %18

18:                                               ; preds = %12
  %19 = load i32, i32* %3, align 4
  %20 = add nsw i32 %19, 1
  store i32 %20, i32* %3, align 4
  br label %8

21:                                               ; preds = %8
  store i32 0, i32* %3, align 4
  br label %22

22:                                               ; preds = %36, %21
  %23 = load i32, i32* %3, align 4
  %24 = load i32, i32* %6, align 4
  %25 = icmp slt i32 %23, %24
  br i1 %25, label %26, label %39

26:                                               ; preds = %22
  %27 = load i32, i32* %3, align 4
  %28 = sext i32 %27 to i64
  %29 = getelementptr inbounds [100 x [110 x i8]], [100 x [110 x i8]]* %2, i64 0, i64 %28
  %30 = getelementptr inbounds [110 x i8], [110 x i8]* %29, i64 0, i64 0
  %31 = call i32 (i8*, ...) @printf(i8* getelementptr inbounds ([4 x i8], [4 x i8]* @.str.1, i64 0, i64 0), i8* %30)
  %32 = load i32, i32* %3, align 4
  %33 = sext i32 %32 to i64
  %34 = getelementptr inbounds [100 x [110 x i8]], [100 x [110 x i8]]* %2, i64 0, i64 %33
  %35 = getelementptr inbounds [110 x i8], [110 x i8]* %34, i64 0, i64 0
  call void @pipei(i8* %35)
  br label %36

36:                                               ; preds = %26
  %37 = load i32, i32* %3, align 4
  %38 = add nsw i32 %37, 1
  store i32 %38, i32* %3, align 4
  br label %22

39:                                               ; preds = %22
  ret i32 0
}

declare dso_local i32 @__isoc99_scanf(i8*, ...) #1

declare dso_local i32 @gets(...) #1

declare dso_local i32 @printf(i8*, ...) #1

; Function Attrs: noinline nounwind uwtable
define dso_local void @pipei(i8* %0) #0 {
  %2 = alloca i8*, align 8
  %3 = alloca i32, align 4
  %4 = alloca i32, align 4
  %5 = alloca i32, align 4
  %6 = alloca i32, align 4
  %7 = alloca i32, align 4
  %8 = alloca i32, align 4
  store i8* %0, i8** %2, align 8
  store i32 0, i32* %3, align 4
  store i32 0, i32* %4, align 4
  store i32 0, i32* %5, align 4
  store i32 0, i32* %6, align 4
  br label %9

9:                                                ; preds = %30, %1
  %10 = load i32, i32* %6, align 4
  %11 = sext i32 %10 to i64
  %12 = load i8*, i8** %2, align 8
  %13 = call i64 @strlen(i8* %12) #3
  %14 = icmp ult i64 %11, %13
  br i1 %14, label %15, label %33

15:                                               ; preds = %9
  %16 = load i8*, i8** %2, align 8
  %17 = load i32, i32* %6, align 4
  %18 = sext i32 %17 to i64
  %19 = getelementptr inbounds i8, i8* %16, i64 %18
  %20 = load i8, i8* %19, align 1
  %21 = sext i8 %20 to i32
  %22 = icmp ne i32 %21, 40
  br i1 %22, label %23, label %28

23:                                               ; preds = %15
  %24 = load i32, i32* %3, align 4
  %25 = add nsw i32 %24, 1
  store i32 %25, i32* %3, align 4
  %26 = load i32, i32* %4, align 4
  %27 = add nsw i32 %26, 1
  store i32 %27, i32* %4, align 4
  br label %29

28:                                               ; preds = %15
  br label %33

29:                                               ; preds = %23
  br label %30

30:                                               ; preds = %29
  %31 = load i32, i32* %6, align 4
  %32 = add nsw i32 %31, 1
  store i32 %32, i32* %6, align 4
  br label %9

33:                                               ; preds = %28, %9
  %34 = load i32, i32* %3, align 4
  %35 = sext i32 %34 to i64
  %36 = load i8*, i8** %2, align 8
  %37 = call i64 @strlen(i8* %36) #3
  %38 = icmp eq i64 %35, %37
  br i1 %38, label %39, label %42

39:                                               ; preds = %33
  %40 = load i8*, i8** %2, align 8
  %41 = call i32 @print(i8* %40)
  br label %94

42:                                               ; preds = %33
  br label %43

43:                                               ; preds = %84, %42
  %44 = load i32, i32* %3, align 4
  %45 = sext i32 %44 to i64
  %46 = load i8*, i8** %2, align 8
  %47 = call i64 @strlen(i8* %46) #3
  %48 = icmp ult i64 %45, %47
  br i1 %48, label %49, label %85

49:                                               ; preds = %43
  %50 = load i8*, i8** %2, align 8
  %51 = load i32, i32* %3, align 4
  %52 = sext i32 %51 to i64
  %53 = getelementptr inbounds i8, i8* %50, i64 %52
  %54 = load i8, i8* %53, align 1
  %55 = sext i8 %54 to i32
  %56 = icmp eq i32 %55, 40
  br i1 %56, label %57, label %61

57:                                               ; preds = %49
  %58 = load i32, i32* %3, align 4
  store i32 %58, i32* %4, align 4
  %59 = load i32, i32* %3, align 4
  %60 = add nsw i32 %59, 1
  store i32 %60, i32* %3, align 4
  br label %84

61:                                               ; preds = %49
  %62 = load i8*, i8** %2, align 8
  %63 = load i32, i32* %3, align 4
  %64 = sext i32 %63 to i64
  %65 = getelementptr inbounds i8, i8* %62, i64 %64
  %66 = load i8, i8* %65, align 1
  %67 = sext i8 %66 to i32
  %68 = icmp eq i32 %67, 41
  br i1 %68, label %69, label %80

69:                                               ; preds = %61
  %70 = load i8*, i8** %2, align 8
  %71 = load i32, i32* %3, align 4
  %72 = sext i32 %71 to i64
  %73 = getelementptr inbounds i8, i8* %70, i64 %72
  store i8 65, i8* %73, align 1
  %74 = load i8*, i8** %2, align 8
  %75 = load i32, i32* %4, align 4
  %76 = sext i32 %75 to i64
  %77 = getelementptr inbounds i8, i8* %74, i64 %76
  store i8 65, i8* %77, align 1
  %78 = load i32, i32* %5, align 4
  %79 = add nsw i32 %78, 1
  store i32 %79, i32* %5, align 4
  br label %85

80:                                               ; preds = %61
  %81 = load i32, i32* %3, align 4
  %82 = add nsw i32 %81, 1
  store i32 %82, i32* %3, align 4
  br label %83

83:                                               ; preds = %80
  br label %84

84:                                               ; preds = %83, %57
  br label %43

85:                                               ; preds = %69, %43
  %86 = load i32, i32* %5, align 4
  %87 = icmp eq i32 %86, 0
  br i1 %87, label %88, label %91

88:                                               ; preds = %85
  %89 = load i8*, i8** %2, align 8
  %90 = call i32 @print(i8* %89)
  br label %93

91:                                               ; preds = %85
  %92 = load i8*, i8** %2, align 8
  call void @pipei(i8* %92)
  br label %93

93:                                               ; preds = %91, %88
  br label %94

94:                                               ; preds = %93, %39
  ret void
}

; Function Attrs: nounwind readonly
declare dso_local i64 @strlen(i8*) #2

; Function Attrs: noinline nounwind uwtable
define dso_local i32 @print(i8* %0) #0 {
  %2 = alloca i8*, align 8
  %3 = alloca i32, align 4
  store i8* %0, i8** %2, align 8
  store i32 0, i32* %3, align 4
  br label %4

4:                                                ; preds = %34, %1
  %5 = load i32, i32* %3, align 4
  %6 = sext i32 %5 to i64
  %7 = load i8*, i8** %2, align 8
  %8 = call i64 @strlen(i8* %7) #3
  %9 = icmp ult i64 %6, %8
  br i1 %9, label %10, label %37

10:                                               ; preds = %4
  %11 = load i8*, i8** %2, align 8
  %12 = load i32, i32* %3, align 4
  %13 = sext i32 %12 to i64
  %14 = getelementptr inbounds i8, i8* %11, i64 %13
  %15 = load i8, i8* %14, align 1
  %16 = sext i8 %15 to i32
  %17 = icmp eq i32 %16, 40
  br i1 %17, label %18, label %20

18:                                               ; preds = %10
  %19 = call i32 (i8*, ...) @printf(i8* getelementptr inbounds ([2 x i8], [2 x i8]* @.str.2, i64 0, i64 0))
  br label %33

20:                                               ; preds = %10
  %21 = load i8*, i8** %2, align 8
  %22 = load i32, i32* %3, align 4
  %23 = sext i32 %22 to i64
  %24 = getelementptr inbounds i8, i8* %21, i64 %23
  %25 = load i8, i8* %24, align 1
  %26 = sext i8 %25 to i32
  %27 = icmp eq i32 %26, 41
  br i1 %27, label %28, label %30

28:                                               ; preds = %20
  %29 = call i32 (i8*, ...) @printf(i8* getelementptr inbounds ([2 x i8], [2 x i8]* @.str.3, i64 0, i64 0))
  br label %32

30:                                               ; preds = %20
  %31 = call i32 (i8*, ...) @printf(i8* getelementptr inbounds ([2 x i8], [2 x i8]* @.str.4, i64 0, i64 0))
  br label %32

32:                                               ; preds = %30, %28
  br label %33

33:                                               ; preds = %32, %18
  br label %34

34:                                               ; preds = %33
  %35 = load i32, i32* %3, align 4
  %36 = add nsw i32 %35, 1
  store i32 %36, i32* %3, align 4
  br label %4

37:                                               ; preds = %4
  %38 = call i32 (i8*, ...) @printf(i8* getelementptr inbounds ([2 x i8], [2 x i8]* @.str.5, i64 0, i64 0))
  ret i32 0
}


!llvm.module.flags = !{!0}
!llvm.ident = !{!1}

!0 = !{i32 1, !"wchar_size", i32 4}
!1 = !{!"clang version 10.0.0-4ubuntu1 "}
